target datalayout = "e-m:e-p270:32:32-p271:32:32-p272:64:64-i64:64-i128:128-f80:128-n8:16:32:64-S128"
target triple = "x86_64-pc-linux-gnu"

; Function Attrs: nounwind uwtable
define i32 @ff_tak_check_crc(ptr noundef %0, i32 noundef %1) #0 {
  %3 = alloca i32, align 4
  %4 = alloca ptr, align 8
  %5 = alloca i32, align 4
  %6 = alloca i32, align 4
  %7 = alloca i32, align 4
  %8 = alloca i32, align 4
  store ptr %0, ptr %4, align 8, !tbaa !4
  store i32 %1, ptr %5, align 4, !tbaa !9
  call void @llvm.lifetime.start.p0(i64 4, ptr %6) #5
  call void @llvm.lifetime.start.p0(i64 4, ptr %7) #5
  %9 = load i32, ptr %5, align 4, !tbaa !9
  %10 = icmp ult i32 %9, 4
  br i1 %10, label %11, label %12

11:                                               ; preds = %2
  store i32 -1094995529, ptr %3, align 4
  store i32 1, ptr %8, align 4
  br label %50

12:                                               ; preds = %2
  %13 = load i32, ptr %5, align 4, !tbaa !9
  %14 = sub i32 %13, 3
  store i32 %14, ptr %5, align 4, !tbaa !9
  %15 = load ptr, ptr %4, align 8, !tbaa !4
  %16 = load i32, ptr %5, align 4, !tbaa !9
  %17 = zext i32 %16 to i64
  %18 = getelementptr inbounds nuw i8, ptr %15, i64 %17
  %19 = getelementptr inbounds i8, ptr %18, i64 0
  %20 = load i8, ptr %19, align 1, !tbaa !11
  %21 = zext i8 %20 to i32
  %22 = shl i32 %21, 16
  %23 = load ptr, ptr %4, align 8, !tbaa !4
  %24 = load i32, ptr %5, align 4, !tbaa !9
  %25 = zext i32 %24 to i64
  %26 = getelementptr inbounds nuw i8, ptr %23, i64 %25
  %27 = getelementptr inbounds i8, ptr %26, i64 1
  %28 = load i8, ptr %27, align 1, !tbaa !11
  %29 = zext i8 %28 to i32
  %30 = shl i32 %29, 8
  %31 = or i32 %22, %30
  %32 = load ptr, ptr %4, align 8, !tbaa !4
  %33 = load i32, ptr %5, align 4, !tbaa !9
  %34 = zext i32 %33 to i64
  %35 = getelementptr inbounds nuw i8, ptr %32, i64 %34
  %36 = getelementptr inbounds i8, ptr %35, i64 2
  %37 = load i8, ptr %36, align 1, !tbaa !11
  %38 = zext i8 %37 to i32
  %39 = or i32 %31, %38
  store i32 %39, ptr %7, align 4, !tbaa !9
  %40 = call ptr @av_crc_get_table(i32 noundef 6)
  %41 = load ptr, ptr %4, align 8, !tbaa !4
  %42 = load i32, ptr %5, align 4, !tbaa !9
  %43 = zext i32 %42 to i64
  %44 = call i32 @av_crc(ptr noundef %40, i32 noundef 13501623, ptr noundef %41, i64 noundef %43) #6
  store i32 %44, ptr %6, align 4, !tbaa !9
  %45 = load i32, ptr %7, align 4, !tbaa !9
  %46 = load i32, ptr %6, align 4, !tbaa !9
  %47 = icmp ne i32 %45, %46
  br i1 %47, label %48, label %49

48:                                               ; preds = %12
  store i32 -1094995529, ptr %3, align 4
  store i32 1, ptr %8, align 4
  br label %50

49:                                               ; preds = %12
  store i32 0, ptr %3, align 4
  store i32 1, ptr %8, align 4
  br label %50

50:                                               ; preds = %49, %48, %11
  call void @llvm.lifetime.end.p0(i64 4, ptr %7) #5
  call void @llvm.lifetime.end.p0(i64 4, ptr %6) #5
  %51 = load i32, ptr %3, align 4
  ret i32 %51
}