; Function Attrs: nounwind uwtable
define range(i32 -1094995529, 1) i32 @ff_tak_check_crc(ptr noundef readonly %0, i32 noundef %1) local_unnamed_addr #0 {
  %3 = icmp ult i32 %1, 4
  br i1 %3, label %22, label %4

4:                                                ; preds = %2
  %5 = add i32 %1, -3
  %6 = zext i32 %5 to i64
  %7 = getelementptr inbounds nuw i8, ptr %0, i64 %6
  %8 = load i8, ptr %7, align 1, !tbaa !4
  %9 = zext i8 %8 to i32
  %10 = shl nuw nsw i32 %9, 16
  %11 = getelementptr inbounds nuw i8, ptr %7, i64 1
  %12 = load i8, ptr %11, align 1, !tbaa !4
  %13 = zext i8 %12 to i32
  %14 = shl nuw nsw i32 %13, 8
  %15 = or disjoint i32 %14, %10
  %16 = getelementptr inbounds nuw i8, ptr %7, i64 2
  %17 = load i8, ptr %16, align 1, !tbaa !4
  %18 = zext i8 %17 to i32
  %19 = or disjoint i32 %15, %18
  %20 = tail call ptr @av_crc_get_table(i32 noundef 6) #5
  %21 = tail call i32 @av_crc(ptr noundef %20, i32 noundef 13501623, ptr noundef %0, i64 noundef %6) #6
  %.not = icmp eq i32 %19, %21
  %. = select i1 %.not, i32 0, i32 -1094995529
  br label %22

22:                                               ; preds = %4, %2
  %.0 = phi i32 [ -1094995529, %2 ], [ %., %4 ]
  ret i32 %.0
}